target datalayout = "e-m:e-p270:32:32-p271:32:32-p272:64:64-i64:64-i128:128-f80:128-n8:16:32:64-S128"
target triple = "x86_64-pc-linux-gnu"

%struct.jit_State = type { %struct.GCtrace, ptr, ptr, ptr, ptr, ptr, ptr, i32, i32, i32, i8, i8, %struct.IRType1, i8, %struct.FoldState, ptr, i32, i32, i32, i32, i32, i32, i32, [1 x i32], [5 x %union.TValue], [3 x %union.TValue], ptr, i32, i32, i32, i32, ptr, ptr, i32, i32, i8, ptr, i32, i32, i16, [101 x i16], [258 x i32], [15 x i32], [16 x ptr], [64 x %struct.HotPenalty], i32, [16 x %struct.BPropEntry], i32, %struct.ScEvEntry, ptr, i32, i32, i32, ptr, i32, i32, ptr, ptr, ptr, i64, i64, %union.TValue, ptr, i32, i32 }
%struct.GCtrace = type { %struct.GCRef, i8, i8, i16, i32, i32, %struct.GCRef, ptr, i32, i32, ptr, ptr, %struct.GCRef, %struct.MRef, i32, i32, ptr, i32, i16, i16, i16, i16, i16, i16, i16, i8, i8, i8, i8 }
%struct.GCRef = type { i64 }
%struct.MRef = type { i64 }
%struct.IRType1 = type { i8 }
%struct.FoldState = type { %union.IRIns, [2 x %union.IRIns], [2 x %union.IRIns] }
%union.IRIns = type { %struct.GCRef }
%struct.HotPenalty = type { %struct.MRef, i16, i16 }
%struct.BPropEntry = type { i16, i16, i32 }
%struct.ScEvEntry = type { %struct.MRef, i16, i16, i16, i16, %struct.IRType1, i8 }
%union.TValue = type { i64 }
%struct.anon.0 = type { i32, %struct.IRType1, i8, i8, i8 }
%struct.anon = type { i16, i16, i16, i16 }

; Function Attrs: alwaysinline nounwind uwtable
define internal void @lj_ir_set_(ptr noundef %0, i16 noundef zeroext %1, i16 noundef zeroext %2, i16 noundef zeroext %3) #2 {
  %5 = alloca ptr, align 8
  %6 = alloca i16, align 2
  %7 = alloca i16, align 2
  %8 = alloca i16, align 2
  store ptr %0, ptr %5, align 8, !tbaa !4
  store i16 %1, ptr %6, align 2, !tbaa !44
  store i16 %2, ptr %7, align 2, !tbaa !44
  store i16 %3, ptr %8, align 2, !tbaa !44
  %9 = load i16, ptr %6, align 2, !tbaa !44
  %10 = load ptr, ptr %5, align 8, !tbaa !4
  %11 = getelementptr inbounds nuw %struct.jit_State, ptr %10, i32 0, i32 14
  %12 = getelementptr inbounds nuw %struct.FoldState, ptr %11, i32 0, i32 0
  %13 = getelementptr inbounds nuw %struct.anon, ptr %12, i32 0, i32 2
  store i16 %9, ptr %13, align 4, !tbaa !33
  %14 = load i16, ptr %7, align 2, !tbaa !44
  %15 = load ptr, ptr %5, align 8, !tbaa !4
  %16 = getelementptr inbounds nuw %struct.jit_State, ptr %15, i32 0, i32 14
  %17 = getelementptr inbounds nuw %struct.FoldState, ptr %16, i32 0, i32 0
  %18 = getelementptr inbounds nuw %struct.anon, ptr %17, i32 0, i32 0
  store i16 %14, ptr %18, align 8, !tbaa !33
  %19 = load i16, ptr %8, align 2, !tbaa !44
  %20 = load ptr, ptr %5, align 8, !tbaa !4
  %21 = getelementptr inbounds nuw %struct.jit_State, ptr %20, i32 0, i32 14
  %22 = getelementptr inbounds nuw %struct.FoldState, ptr %21, i32 0, i32 0
  %23 = getelementptr inbounds nuw %struct.anon, ptr %22, i32 0, i32 1
  store i16 %19, ptr %23, align 2, !tbaa !33
  ret void
}

; Function Attrs: nounwind uwtable
define hidden i32 @lj_opt_narrow_index(ptr noundef %0, i32 noundef %1) #0 {
  %3 = alloca i32, align 4
  %4 = alloca ptr, align 8
  %5 = alloca i32, align 4
  %6 = alloca ptr, align 8
  %7 = alloca i32, align 4
  store ptr %0, ptr %4, align 8, !tbaa !4
  store i32 %1, ptr %5, align 4, !tbaa !38
  call void @llvm.lifetime.start.p0(i64 8, ptr %6) #5
  %8 = load i32, ptr %5, align 4, !tbaa !38
  %9 = and i32 %8, 520093696
  %10 = icmp eq i32 %9, 234881024
  br i1 %10, label %11, label %17

11:                                               ; preds = %2
  %12 = load ptr, ptr %4, align 8, !tbaa !4
  %13 = load i32, ptr %5, align 4, !tbaa !38
  %14 = trunc i32 %13 to i16
  call void @lj_ir_set_(ptr noundef %12, i16 noundef zeroext 23443, i16 noundef zeroext %14, i16 noundef zeroext 8814)
  %15 = load ptr, ptr %4, align 8, !tbaa !4
  %16 = call i32 @lj_opt_fold(ptr noundef %15)
  store i32 %16, ptr %3, align 4
  store i32 1, ptr %7, align 4
  br label %77

17:                                               ; preds = %2
  %18 = load ptr, ptr %4, align 8, !tbaa !4
  %19 = getelementptr inbounds nuw %struct.jit_State, ptr %18, i32 0, i32 0
  %20 = getelementptr inbounds nuw %struct.GCtrace, ptr %19, i32 0, i32 7
  %21 = load ptr, ptr %20, align 8, !tbaa !39
  %22 = load i32, ptr %5, align 4, !tbaa !38
  %23 = trunc i32 %22 to i16
  %24 = zext i16 %23 to i64
  %25 = getelementptr inbounds nuw %union.IRIns, ptr %21, i64 %24
  store ptr %25, ptr %6, align 8, !tbaa !40
  %26 = load ptr, ptr %6, align 8, !tbaa !40
  %27 = getelementptr inbounds nuw %struct.anon.0, ptr %26, i32 0, i32 2
  %28 = load i8, ptr %27, align 1, !tbaa !33
  %29 = zext i8 %28 to i32
  %30 = icmp eq i32 %29, 53
  br i1 %30, label %37, label %31

31:                                               ; preds = %17
  %32 = load ptr, ptr %6, align 8, !tbaa !40
  %33 = getelementptr inbounds nuw %struct.anon.0, ptr %32, i32 0, i32 2
  %34 = load i8, ptr %33, align 1, !tbaa !33
  %35 = zext i8 %34 to i32
  %36 = icmp eq i32 %35, 54
  br i1 %36, label %37, label %75

37:                                               ; preds = %31, %17
  %38 = load ptr, ptr %6, align 8, !tbaa !40
  %39 = getelementptr inbounds nuw %struct.anon, ptr %38, i32 0, i32 1
  %40 = load i16, ptr %39, align 2, !tbaa !33
  %41 = zext i16 %40 to i32
  %42 = icmp slt i32 %41, 32768
  br i1 %42, label %43, label %75

43:                                               ; preds = %37
  %44 = load ptr, ptr %4, align 8, !tbaa !4
  %45 = getelementptr inbounds nuw %struct.jit_State, ptr %44, i32 0, i32 0
  %46 = getelementptr inbounds nuw %struct.GCtrace, ptr %45, i32 0, i32 7
  %47 = load ptr, ptr %46, align 8, !tbaa !39
  %48 = load ptr, ptr %6, align 8, !tbaa !40
  %49 = getelementptr inbounds nuw %struct.anon, ptr %48, i32 0, i32 1
  %50 = load i16, ptr %49, align 2, !tbaa !33
  %51 = zext i16 %50 to i64
  %52 = getelementptr inbounds nuw %union.IRIns, ptr %47, i64 %51
  %53 = load i32, ptr %52, align 8, !tbaa !33
  %54 = add i32 %53, 1073741824
  %55 = icmp ult i32 %54, -2147483648
  br i1 %55, label %56, label %75

56:                                               ; preds = %43
  %57 = load ptr, ptr %4, align 8, !tbaa !4
  %58 = load ptr, ptr %6, align 8, !tbaa !40
  %59 = getelementptr inbounds nuw %struct.anon.0, ptr %58, i32 0, i32 2
  %60 = load i8, ptr %59, align 1, !tbaa !33
  %61 = zext i8 %60 to i32
  %62 = sub nsw i32 %61, 53
  %63 = add nsw i32 %62, 41
  %64 = shl i32 %63, 8
  %65 = or i32 %64, 19
  %66 = trunc i32 %65 to i16
  %67 = load ptr, ptr %6, align 8, !tbaa !40
  %68 = getelementptr inbounds nuw %struct.anon, ptr %67, i32 0, i32 0
  %69 = load i16, ptr %68, align 8, !tbaa !33
  %70 = load ptr, ptr %6, align 8, !tbaa !40
  %71 = getelementptr inbounds nuw %struct.anon, ptr %70, i32 0, i32 1
  %72 = load i16, ptr %71, align 2, !tbaa !33
  call void @lj_ir_set_(ptr noundef %57, i16 noundef zeroext %66, i16 noundef zeroext %69, i16 noundef zeroext %72)
  %73 = load ptr, ptr %4, align 8, !tbaa !4
  %74 = call i32 @lj_opt_fold(ptr noundef %73)
  store i32 %74, ptr %3, align 4
  store i32 1, ptr %7, align 4
  br label %77

75:                                               ; preds = %43, %37, %31
  %76 = load i32, ptr %5, align 4, !tbaa !38
  store i32 %76, ptr %3, align 4
  store i32 1, ptr %7, align 4
  br label %77

77:                                               ; preds = %75, %56, %11
  call void @llvm.lifetime.end.p0(i64 8, ptr %6) #5
  %78 = load i32, ptr %3, align 4
  ret i32 %78
}