; Function Attrs: nounwind uwtable
define hidden i32 @lj_opt_narrow_index(ptr noundef %0, i32 noundef %1) local_unnamed_addr #0 {
  %3 = and i32 %1, 520093696
  %4 = icmp eq i32 %3, 234881024
  br i1 %4, label %5, label %7

5:                                                ; preds = %2
  %6 = trunc i32 %1 to i16
  br label %.sink.split

7:                                                ; preds = %2
  %8 = getelementptr inbounds nuw i8, ptr %0, i64 32
  %9 = load ptr, ptr %8, align 8, !tbaa !36
  %10 = and i32 %1, 65535
  %11 = zext nneg i32 %10 to i64
  %12 = getelementptr inbounds nuw %union.IRIns, ptr %9, i64 %11
  %13 = getelementptr inbounds nuw i8, ptr %12, i64 5
  %14 = load i8, ptr %13, align 1, !tbaa !32
  %.off = add i8 %14, -53
  %switch = icmp ult i8 %.off, 2
  br i1 %switch, label %15, label %34

15:                                               ; preds = %7
  %16 = getelementptr inbounds nuw i8, ptr %12, i64 2
  %17 = load i16, ptr %16, align 2, !tbaa !32
  %18 = icmp sgt i16 %17, -1
  br i1 %18, label %19, label %34

19:                                               ; preds = %15
  %20 = zext nneg i16 %17 to i64
  %21 = getelementptr inbounds nuw %union.IRIns, ptr %9, i64 %20
  %22 = load i32, ptr %21, align 8, !tbaa !32
  %23 = add i32 %22, 1073741824
  %24 = icmp sgt i32 %23, -1
  br i1 %24, label %25, label %34

25:                                               ; preds = %19
  %26 = zext nneg i8 %14 to i16
  %27 = shl nuw nsw i16 %26, 8
  %28 = add nsw i16 %27, -3053
  %29 = load i16, ptr %12, align 8, !tbaa !32
  br label %.sink.split

.sink.split:                                      ; preds = %5, %25
  %.sink21 = phi i16 [ %28, %25 ], [ 23443, %5 ]
  %.sink19 = phi i16 [ %29, %25 ], [ %6, %5 ]
  %.sink = phi i16 [ %17, %25 ], [ 8814, %5 ]
  %30 = getelementptr inbounds nuw i8, ptr %0, i64 184
  %31 = getelementptr inbounds nuw i8, ptr %0, i64 188
  store i16 %.sink21, ptr %31, align 4, !tbaa !32
  store i16 %.sink19, ptr %30, align 8, !tbaa !32
  %32 = getelementptr inbounds nuw i8, ptr %0, i64 186
  store i16 %.sink, ptr %32, align 2, !tbaa !32
  %33 = tail call i32 @lj_opt_fold(ptr noundef %0) #6
  br label %34

34:                                               ; preds = %.sink.split, %7, %15, %19
  %.0 = phi i32 [ %1, %7 ], [ %1, %19 ], [ %1, %15 ], [ %33, %.sink.split ]
  ret i32 %.0
}